target datalayout = "e-m:e-p270:32:32-p271:32:32-p272:64:64-i64:64-i128:128-f80:128-n8:16:32:64-S128"
target triple = "x86_64-pc-linux-gnu"

%"class.icu_77::UnifiedCache" = type { %"class.icu_77::UnifiedCacheBase", ptr, i32, i32, i32, i32, i32, i64, ptr }
%"class.icu_77::UnifiedCacheBase" = type { %"class.icu_77::UObject" }
%"class.icu_77::UObject" = type { ptr }

; Function Attrs: inlinehint mustprogress nounwind uwtable
define linkonce_odr noundef nonnull align 4 dereferenceable(4) ptr @_ZSt3maxIiERKT_S2_S2_(ptr noundef nonnull align 4 dereferenceable(4) %0, ptr noundef nonnull align 4 dereferenceable(4) %1) #6 comdat {
  %3 = alloca ptr, align 8
  %4 = alloca ptr, align 8
  %5 = alloca ptr, align 8
  store ptr %0, ptr %4, align 8, !tbaa !63
  store ptr %1, ptr %5, align 8, !tbaa !63
  %6 = load ptr, ptr %4, align 8, !tbaa !63
  %7 = load i32, ptr %6, align 4, !tbaa !49
  %8 = load ptr, ptr %5, align 8, !tbaa !63
  %9 = load i32, ptr %8, align 4, !tbaa !49
  %10 = icmp slt i32 %7, %9
  br i1 %10, label %11, label %13

11:                                               ; preds = %2
  %12 = load ptr, ptr %5, align 8, !tbaa !63
  store ptr %12, ptr %3, align 8
  br label %15

13:                                               ; preds = %2
  %14 = load ptr, ptr %4, align 8, !tbaa !63
  store ptr %14, ptr %3, align 8
  br label %15

15:                                               ; preds = %13, %11
  %16 = load ptr, ptr %3, align 8
  ret ptr %16
}

; Function Attrs: mustprogress uwtable
define noundef i32 @_ZNK6icu_7712UnifiedCache27_computeCountOfItemsToEvictEv(ptr noundef nonnull align 8 dereferenceable(56) %0) #0 align 2 {
  %2 = alloca ptr, align 8
  %3 = alloca i32, align 4
  %4 = alloca i32, align 4
  %5 = alloca i32, align 4
  %6 = alloca i32, align 4
  %7 = alloca i32, align 4
  %8 = alloca i32, align 4
  %9 = alloca i32, align 4
  store ptr %0, ptr %2, align 8, !tbaa !14
  %10 = load ptr, ptr %2, align 8
  call void @llvm.lifetime.start.p0(i64 4, ptr %3) #12
  %11 = getelementptr inbounds nuw %"class.icu_77::UnifiedCache", ptr %10, i32 0, i32 1
  %12 = load ptr, ptr %11, align 8, !tbaa !27
  %13 = call i32 @uhash_count_77(ptr noundef %12)
  store i32 %13, ptr %3, align 4, !tbaa !49
  call void @llvm.lifetime.start.p0(i64 4, ptr %4) #12
  %14 = load i32, ptr %3, align 4, !tbaa !49
  %15 = getelementptr inbounds nuw %"class.icu_77::UnifiedCache", ptr %10, i32 0, i32 4
  %16 = load i32, ptr %15, align 8, !tbaa !36
  %17 = sub nsw i32 %14, %16
  store i32 %17, ptr %4, align 4, !tbaa !49
  call void @llvm.lifetime.start.p0(i64 4, ptr %5) #12
  %18 = getelementptr inbounds nuw %"class.icu_77::UnifiedCache", ptr %10, i32 0, i32 4
  %19 = load i32, ptr %18, align 8, !tbaa !36
  %20 = getelementptr inbounds nuw %"class.icu_77::UnifiedCache", ptr %10, i32 0, i32 6
  %21 = load i32, ptr %20, align 8, !tbaa !38
  %22 = mul nsw i32 %19, %21
  %23 = sdiv i32 %22, 100
  store i32 %23, ptr %5, align 4, !tbaa !49
  call void @llvm.lifetime.start.p0(i64 4, ptr %6) #12
  %24 = getelementptr inbounds nuw %"class.icu_77::UnifiedCache", ptr %10, i32 0, i32 5
  %25 = call noundef nonnull align 4 dereferenceable(4) ptr @_ZSt3maxIiERKT_S2_S2_(ptr noundef nonnull align 4 dereferenceable(4) %5, ptr noundef nonnull align 4 dereferenceable(4) %24)
  %26 = load i32, ptr %25, align 4, !tbaa !49
  store i32 %26, ptr %6, align 4, !tbaa !49
  call void @llvm.lifetime.start.p0(i64 4, ptr %7) #12
  call void @llvm.lifetime.start.p0(i64 4, ptr %8) #12
  store i32 0, ptr %8, align 4, !tbaa !49
  call void @llvm.lifetime.start.p0(i64 4, ptr %9) #12
  %27 = load i32, ptr %4, align 4, !tbaa !49
  %28 = load i32, ptr %6, align 4, !tbaa !49
  %29 = sub nsw i32 %27, %28
  store i32 %29, ptr %9, align 4, !tbaa !49
  %30 = call noundef nonnull align 4 dereferenceable(4) ptr @_ZSt3maxIiERKT_S2_S2_(ptr noundef nonnull align 4 dereferenceable(4) %8, ptr noundef nonnull align 4 dereferenceable(4) %9)
  %31 = load i32, ptr %30, align 4, !tbaa !49
  call void @llvm.lifetime.end.p0(i64 4, ptr %9) #12
  call void @llvm.lifetime.end.p0(i64 4, ptr %8) #12
  store i32 %31, ptr %7, align 4, !tbaa !49
  %32 = load i32, ptr %7, align 4, !tbaa !49
  call void @llvm.lifetime.end.p0(i64 4, ptr %7) #12
  call void @llvm.lifetime.end.p0(i64 4, ptr %6) #12
  call void @llvm.lifetime.end.p0(i64 4, ptr %5) #12
  call void @llvm.lifetime.end.p0(i64 4, ptr %4) #12
  call void @llvm.lifetime.end.p0(i64 4, ptr %3) #12
  ret i32 %32
}