; Function Attrs: mustprogress uwtable
define noundef range(i32 0, -2147483648) i32 @_ZNK6icu_7712UnifiedCache27_computeCountOfItemsToEvictEv(ptr noundef nonnull readonly align 8 captures(none) dereferenceable(56) %0) local_unnamed_addr #0 align 2 {
  %2 = getelementptr inbounds nuw i8, ptr %0, i64 8
  %3 = load ptr, ptr %2, align 8, !tbaa !21
  %4 = tail call i32 @uhash_count_77(ptr noundef %3)
  %5 = getelementptr inbounds nuw i8, ptr %0, i64 24
  %6 = load i32, ptr %5, align 8, !tbaa !30
  %7 = getelementptr inbounds nuw i8, ptr %0, i64 32
  %8 = load i32, ptr %7, align 8, !tbaa !32
  %9 = mul nsw i32 %8, %6
  %10 = sdiv i32 %9, 100
  %11 = getelementptr inbounds nuw i8, ptr %0, i64 28
  %12 = load i32, ptr %11, align 4, !tbaa !46
  %.sroa.speculated8 = tail call i32 @llvm.smax.i32(i32 %10, i32 %12)
  %13 = add i32 %6, %.sroa.speculated8
  %14 = sub i32 %4, %13
  %.sroa.speculated = tail call i32 @llvm.smax.i32(i32 %14, i32 0)
  ret i32 %.sroa.speculated
}